; Function Attrs: nounwind uwtable
define i64 @update_rho_vec(ptr noundef readonly captures(none) %0) local_unnamed_addr #0 {
  %2 = getelementptr inbounds nuw i8, ptr %0, i64 24
  %3 = load ptr, ptr %2, align 8
  %4 = load ptr, ptr %0, align 8
  %5 = getelementptr inbounds nuw i8, ptr %4, i64 64
  %6 = load double, ptr %5, align 8
  %7 = fcmp ule double %6, 0x3EB0C6F7A0B5ED8D
  %8 = fcmp olt double %6, 1.000000e+06
  %9 = or i1 %7, %8
  %10 = xor i1 %8, true
  %brmerge.i = or i1 %7, %10
  %.mux.i = select i1 %9, double 0x3EB0C6F7A0B5ED8D, double 1.000000e+06
  %11 = select i1 %brmerge.i, double %.mux.i, double %6
  store double %11, ptr %5, align 8
  %12 = getelementptr inbounds nuw i8, ptr %3, i64 40
  %13 = load ptr, ptr %12, align 8
  %14 = load ptr, ptr %3, align 8
  %15 = getelementptr inbounds nuw i8, ptr %14, i64 40
  %16 = load ptr, ptr %15, align 8
  %17 = getelementptr inbounds nuw i8, ptr %14, i64 48
  %18 = load ptr, ptr %17, align 8
  %19 = tail call i64 @OSQPVectorf_ew_bounds_type(ptr noundef %13, ptr noundef %16, ptr noundef %18, double noundef 1.000000e-04, double noundef 1.000000e+26) #9
  %20 = getelementptr inbounds nuw i8, ptr %3, i64 24
  %21 = load ptr, ptr %20, align 8
  %22 = load ptr, ptr %12, align 8
  %23 = load double, ptr %5, align 8
  %24 = fmul double %23, 1.000000e+03
  tail call void @OSQPVectorf_set_scalar_conditional(ptr noundef %21, ptr noundef %22, double noundef 0x3EB0C6F7A0B5ED8D, double noundef %23, double noundef %24) #9
  %25 = getelementptr inbounds nuw i8, ptr %3, i64 32
  %26 = load ptr, ptr %25, align 8
  %27 = load ptr, ptr %20, align 8
  tail call void @OSQPVectorf_ew_reciprocal(ptr noundef %26, ptr noundef %27) #9
  %28 = icmp eq i64 %19, 1
  br i1 %28, label %29, label %39

29:                                               ; preds = %1
  %30 = getelementptr inbounds nuw i8, ptr %3, i64 8
  %31 = load ptr, ptr %30, align 8
  %32 = getelementptr inbounds nuw i8, ptr %31, i64 64
  %33 = load ptr, ptr %32, align 8
  %34 = load ptr, ptr %20, align 8
  %35 = load ptr, ptr %0, align 8
  %36 = getelementptr inbounds nuw i8, ptr %35, i64 64
  %37 = load double, ptr %36, align 8
  %38 = tail call i64 %33(ptr noundef %31, ptr noundef %34, double noundef %37) #9
  br label %39

39:                                               ; preds = %29, %1
  %.0 = phi i64 [ %38, %29 ], [ 0, %1 ]
  ret i64 %.0
}